; ModuleID = '38/1198.c'
source_filename = "38/1198.c"
target datalayout = "e-m:e-p270:32:32-p271:32:32-p272:64:64-i64:64-f80:128-n8:16:32:64-S128"
target triple = "x86_64-pc-linux-gnu"

@.str = private unnamed_addr constant [3 x i8] c"%d\00", align 1
@.str.1 = private unnamed_addr constant [4 x i8] c"%lf\00", align 1
@.str.2 = private unnamed_addr constant [6 x i8] c"%.5f\0A\00", align 1

; Function Attrs: noinline nounwind uwtable
define dso_local void @main() #0 {
  %1 = alloca i32, align 4
  %2 = alloca i32, align 4
  %3 = alloca i32, align 4
  %4 = alloca i32, align 4
  %5 = alloca double, align 8
  %6 = alloca double, align 8
  %7 = alloca double, align 8
  %8 = alloca double, align 8
  %9 = alloca [1000 x double]*, align 8
  %10 = call noalias i8* @calloc(i64 100, i64 8000) #3
  %11 = bitcast i8* %10 to double*
  %12 = bitcast double* %11 to [1000 x double]*
  store [1000 x double]* %12, [1000 x double]** %9, align 8
  %13 = call i32 (i8*, ...) @__isoc99_scanf(i8* getelementptr inbounds ([3 x i8], [3 x i8]* @.str, i64 0, i64 0), i32* %1)
  store i32 0, i32* %3, align 4
  br label %14

14:                                               ; preds = %94, %0
  %15 = load i32, i32* %3, align 4
  %16 = load i32, i32* %1, align 4
  %17 = icmp slt i32 %15, %16
  br i1 %17, label %18, label %97

18:                                               ; preds = %14
  %19 = call i32 (i8*, ...) @__isoc99_scanf(i8* getelementptr inbounds ([3 x i8], [3 x i8]* @.str, i64 0, i64 0), i32* %2)
  store double 0.000000e+00, double* %6, align 8
  store i32 0, i32* %4, align 4
  br label %20

20:                                               ; preds = %45, %18
  %21 = load i32, i32* %4, align 4
  %22 = load i32, i32* %2, align 4
  %23 = icmp slt i32 %21, %22
  br i1 %23, label %24, label %48

24:                                               ; preds = %20
  %25 = load [1000 x double]*, [1000 x double]** %9, align 8
  %26 = load i32, i32* %3, align 4
  %27 = sext i32 %26 to i64
  %28 = getelementptr inbounds [1000 x double], [1000 x double]* %25, i64 %27
  %29 = getelementptr inbounds [1000 x double], [1000 x double]* %28, i64 0, i64 0
  %30 = load i32, i32* %4, align 4
  %31 = sext i32 %30 to i64
  %32 = getelementptr inbounds double, double* %29, i64 %31
  %33 = call i32 (i8*, ...) @__isoc99_scanf(i8* getelementptr inbounds ([4 x i8], [4 x i8]* @.str.1, i64 0, i64 0), double* %32)
  %34 = load double, double* %6, align 8
  %35 = load [1000 x double]*, [1000 x double]** %9, align 8
  %36 = load i32, i32* %3, align 4
  %37 = sext i32 %36 to i64
  %38 = getelementptr inbounds [1000 x double], [1000 x double]* %35, i64 %37
  %39 = getelementptr inbounds [1000 x double], [1000 x double]* %38, i64 0, i64 0
  %40 = load i32, i32* %4, align 4
  %41 = sext i32 %40 to i64
  %42 = getelementptr inbounds double, double* %39, i64 %41
  %43 = load double, double* %42, align 8
  %44 = fadd double %34, %43
  store double %44, double* %6, align 8
  br label %45

45:                                               ; preds = %24
  %46 = load i32, i32* %4, align 4
  %47 = add nsw i32 %46, 1
  store i32 %47, i32* %4, align 4
  br label %20

48:                                               ; preds = %20
  %49 = load double, double* %6, align 8
  %50 = load i32, i32* %2, align 4
  %51 = sitofp i32 %50 to double
  %52 = fdiv double %49, %51
  store double %52, double* %7, align 8
  store i32 0, i32* %4, align 4
  store double 0.000000e+00, double* %8, align 8
  br label %53

53:                                               ; preds = %83, %48
  %54 = load i32, i32* %4, align 4
  %55 = load i32, i32* %2, align 4
  %56 = icmp slt i32 %54, %55
  br i1 %56, label %57, label %86

57:                                               ; preds = %53
  %58 = load double, double* %8, align 8
  %59 = load [1000 x double]*, [1000 x double]** %9, align 8
  %60 = load i32, i32* %3, align 4
  %61 = sext i32 %60 to i64
  %62 = getelementptr inbounds [1000 x double], [1000 x double]* %59, i64 %61
  %63 = getelementptr inbounds [1000 x double], [1000 x double]* %62, i64 0, i64 0
  %64 = load i32, i32* %4, align 4
  %65 = sext i32 %64 to i64
  %66 = getelementptr inbounds double, double* %63, i64 %65
  %67 = load double, double* %66, align 8
  %68 = load double, double* %7, align 8
  %69 = fsub double %67, %68
  %70 = load [1000 x double]*, [1000 x double]** %9, align 8
  %71 = load i32, i32* %3, align 4
  %72 = sext i32 %71 to i64
  %73 = getelementptr inbounds [1000 x double], [1000 x double]* %70, i64 %72
  %74 = getelementptr inbounds [1000 x double], [1000 x double]* %73, i64 0, i64 0
  %75 = load i32, i32* %4, align 4
  %76 = sext i32 %75 to i64
  %77 = getelementptr inbounds double, double* %74, i64 %76
  %78 = load double, double* %77, align 8
  %79 = load double, double* %7, align 8
  %80 = fsub double %78, %79
  %81 = fmul double %69, %80
  %82 = fadd double %58, %81
  store double %82, double* %8, align 8
  br label %83

83:                                               ; preds = %57
  %84 = load i32, i32* %4, align 4
  %85 = add nsw i32 %84, 1
  store i32 %85, i32* %4, align 4
  br label %53

86:                                               ; preds = %53
  %87 = load double, double* %8, align 8
  %88 = load i32, i32* %2, align 4
  %89 = sitofp i32 %88 to double
  %90 = fdiv double %87, %89
  %91 = call double @sqrt(double %90) #3
  store double %91, double* %5, align 8
  %92 = load double, double* %5, align 8
  %93 = call i32 (i8*, ...) @printf(i8* getelementptr inbounds ([6 x i8], [6 x i8]* @.str.2, i64 0, i64 0), double %92)
  br label %94

94:                                               ; preds = %86
  %95 = load i32, i32* %3, align 4
  %96 = add nsw i32 %95, 1
  store i32 %96, i32* %3, align 4
  br label %14

97:                                               ; preds = %14
  ret void
}

; Function Attrs: nounwind
declare dso_local noalias i8* @calloc(i64, i64) #1

declare dso_local i32 @__isoc99_scanf(i8*, ...) #2

; Function Attrs: nounwind
declare dso_local double @sqrt(double) #1

declare dso_local i32 @printf(i8*, ...) #2


!llvm.module.flags = !{!0}
!llvm.ident = !{!1}

!0 = !{i32 1, !"wchar_size", i32 4}
!1 = !{!"clang version 10.0.0-4ubuntu1 "}
